target datalayout = "e-m:e-p270:32:32-p271:32:32-p272:64:64-i64:64-i128:128-f80:128-n8:16:32:64-S128"
target triple = "x86_64-pc-linux-gnu"

%class.QString = type { %struct.QArrayDataPointer }
%struct.QArrayDataPointer = type { ptr, ptr, i64 }
%struct.QMetaObject = type { %"struct.QMetaObject::Data" }
%"struct.QMetaObject::Data" = type { %"struct.QMetaObject::SuperData", ptr, ptr, ptr, ptr, ptr, ptr }
%"struct.QMetaObject::SuperData" = type { ptr }
%class.QEvent = type { ptr, i16, i8, i8, i8, i8, i16 }
%class.QFlags.2 = type { i32 }
%class.QFlags.4 = type { i32 }
%class.QFlags.0 = type { i32 }
%class.QPointF = type { double, double }
%class.QDropEvent = type { %class.QEvent, %class.QPointF, %class.QFlags.2, %class.QFlags.0, %class.QFlags.4, i32, i32, ptr }

@_ZN17WiresharkMimeData21DisplayFilterMimeTypeE = external global %class.QString, align 8
@_ZN20ToolbarEntryMimeData16staticMetaObjectE = external global %struct.QMetaObject, align 8

; Function Attrs: mustprogress nounwind uwtable
define linkonce_odr void @_ZN6QEvent6ignoreEv(ptr noundef nonnull align 8 dereferenceable(16) %0) #2 comdat align 2 {
  %2 = alloca ptr, align 8
  store ptr %0, ptr %2, align 8
  %3 = load ptr, ptr %2, align 8
  %4 = getelementptr inbounds %class.QEvent, ptr %3, i32 0, i32 4
  store i8 0, ptr %4, align 4
  ret void
}

; Function Attrs: mustprogress nounwind uwtable
define linkonce_odr void @_ZN6QEvent6acceptEv(ptr noundef nonnull align 8 dereferenceable(16) %0) #2 comdat align 2 {
  %2 = alloca ptr, align 8
  store ptr %0, ptr %2, align 8
  %3 = load ptr, ptr %2, align 8
  %4 = getelementptr inbounds %class.QEvent, ptr %3, i32 0, i32 4
  store i8 1, ptr %4, align 4
  ret void
}

; Function Attrs: mustprogress uwtable
define linkonce_odr void @_ZN14QDragMoveEvent6ignoreEv(ptr noundef nonnull align 8 dereferenceable(80) %0) #0 comdat align 2 {
  %2 = alloca ptr, align 8
  store ptr %0, ptr %2, align 8
  %3 = load ptr, ptr %2, align 8
  call void @_ZN6QEvent6ignoreEv(ptr noundef nonnull align 8 dereferenceable(16) %3)
  ret void
}

; Function Attrs: mustprogress uwtable
define linkonce_odr void @_ZN10QDropEvent20acceptProposedActionEv(ptr noundef nonnull align 8 dereferenceable(64) %0) #0 comdat align 2 {
  %2 = alloca ptr, align 8
  store ptr %0, ptr %2, align 8
  %3 = load ptr, ptr %2, align 8
  %4 = getelementptr inbounds %class.QDropEvent, ptr %3, i32 0, i32 6
  %5 = load i32, ptr %4, align 8
  %6 = getelementptr inbounds %class.QDropEvent, ptr %3, i32 0, i32 5
  store i32 %5, ptr %6, align 4
  call void @_ZN6QEvent6acceptEv(ptr noundef nonnull align 8 dereferenceable(16) %3)
  ret void
}

; Function Attrs: mustprogress uwtable
define linkonce_odr void @_ZN14QDragMoveEvent6acceptEv(ptr noundef nonnull align 8 dereferenceable(80) %0) #0 comdat align 2 {
  %2 = alloca ptr, align 8
  store ptr %0, ptr %2, align 8
  %3 = load ptr, ptr %2, align 8
  call void @_ZN6QEvent6acceptEv(ptr noundef nonnull align 8 dereferenceable(16) %3)
  ret void
}

; Function Attrs: mustprogress uwtable
define linkonce_odr noundef ptr @_Z12qobject_castIPK20ToolbarEntryMimeDataET_PK7QObject(ptr noundef %0) #0 comdat {
  %2 = alloca ptr, align 8
  store ptr %0, ptr %2, align 8
  %3 = load ptr, ptr %2, align 8
  %4 = call noundef ptr @_ZNK11QMetaObject4castEPK7QObject(ptr noundef nonnull align 8 dereferenceable(56) @_ZN20ToolbarEntryMimeData16staticMetaObjectE, ptr noundef %3)
  ret ptr %4
}

; Function Attrs: mustprogress nounwind uwtable
define linkonce_odr noundef ptr @_ZNK10QDropEvent8mimeDataEv(ptr noundef nonnull align 8 dereferenceable(64) %0) #2 comdat align 2 {
  %2 = alloca ptr, align 8
  store ptr %0, ptr %2, align 8
  %3 = load ptr, ptr %2, align 8
  %4 = getelementptr inbounds %class.QDropEvent, ptr %3, i32 0, i32 7
  %5 = load ptr, ptr %4, align 8
  ret ptr %5
}

; Function Attrs: mustprogress uwtable
define void @_ZN15DragDropToolBar14dragEnterEventEP15QDragEnterEvent(ptr noundef nonnull align 8 dereferenceable(52) %0, ptr noundef %1) unnamed_addr #0 align 2 {
  %3 = alloca ptr, align 8
  %4 = alloca ptr, align 8
  store ptr %0, ptr %3, align 8
  store ptr %1, ptr %4, align 8
  %5 = load ptr, ptr %3, align 8
  %6 = load ptr, ptr %4, align 8
  %7 = icmp ne ptr %6, null
  br i1 %7, label %8, label %12

8:                                                ; preds = %2
  %9 = load ptr, ptr %4, align 8
  %10 = call noundef ptr @_ZNK10QDropEvent8mimeDataEv(ptr noundef nonnull align 8 dereferenceable(64) %9)
  %11 = icmp ne ptr %10, null
  br i1 %11, label %13, label %12

12:                                               ; preds = %8, %2
  br label %48

13:                                               ; preds = %8
  %14 = load ptr, ptr %4, align 8
  %15 = call noundef ptr @_ZNK10QDropEvent8mimeDataEv(ptr noundef nonnull align 8 dereferenceable(64) %14)
  %16 = call noundef ptr @_Z12qobject_castIPK20ToolbarEntryMimeDataET_PK7QObject(ptr noundef %15)
  %17 = icmp ne ptr %16, null
  br i1 %17, label %18, label %28

18:                                               ; preds = %13
  %19 = load ptr, ptr %4, align 8
  %20 = call noundef ptr @_ZNK10QDropEvent6sourceEv(ptr noundef nonnull align 8 dereferenceable(64) %19)
  %21 = icmp eq ptr %20, %5
  br i1 %21, label %22, label %25

22:                                               ; preds = %18
  %23 = load ptr, ptr %4, align 8
  call void @_ZN10QDropEvent13setDropActionEN2Qt10DropActionE(ptr noundef nonnull align 8 dereferenceable(64) %23, i32 noundef 2)
  %24 = load ptr, ptr %4, align 8
  call void @_ZN14QDragMoveEvent6acceptEv(ptr noundef nonnull align 8 dereferenceable(80) %24)
  br label %27

25:                                               ; preds = %18
  %26 = load ptr, ptr %4, align 8
  call void @_ZN10QDropEvent20acceptProposedActionEv(ptr noundef nonnull align 8 dereferenceable(64) %26)
  br label %27

27:                                               ; preds = %25, %22
  br label %48

28:                                               ; preds = %13
  %29 = load ptr, ptr %4, align 8
  %30 = call noundef ptr @_ZNK10QDropEvent8mimeDataEv(ptr noundef nonnull align 8 dereferenceable(64) %29)
  %31 = load ptr, ptr %30, align 8
  %32 = getelementptr inbounds ptr, ptr %31, i64 12
  %33 = load ptr, ptr %32, align 8
  %34 = call noundef zeroext i1 %33(ptr noundef nonnull align 8 dereferenceable(16) %30, ptr noundef nonnull align 8 dereferenceable(24) @_ZN17WiresharkMimeData21DisplayFilterMimeTypeE)
  br i1 %34, label %35, label %45

35:                                               ; preds = %28
  %36 = load ptr, ptr %4, align 8
  %37 = call noundef ptr @_ZNK10QDropEvent6sourceEv(ptr noundef nonnull align 8 dereferenceable(64) %36)
  %38 = icmp ne ptr %37, %5
  br i1 %38, label %39, label %42

39:                                               ; preds = %35
  %40 = load ptr, ptr %4, align 8
  call void @_ZN10QDropEvent13setDropActionEN2Qt10DropActionE(ptr noundef nonnull align 8 dereferenceable(64) %40, i32 noundef 1)
  %41 = load ptr, ptr %4, align 8
  call void @_ZN14QDragMoveEvent6acceptEv(ptr noundef nonnull align 8 dereferenceable(80) %41)
  br label %44

42:                                               ; preds = %35
  %43 = load ptr, ptr %4, align 8
  call void @_ZN10QDropEvent20acceptProposedActionEv(ptr noundef nonnull align 8 dereferenceable(64) %43)
  br label %44

44:                                               ; preds = %42, %39
  br label %47

45:                                               ; preds = %28
  %46 = load ptr, ptr %4, align 8
  call void @_ZN14QDragMoveEvent6ignoreEv(ptr noundef nonnull align 8 dereferenceable(80) %46)
  br label %47

47:                                               ; preds = %45, %44
  br label %48

48:                                               ; preds = %47, %27, %12
  ret void
}