; Function Attrs: mustprogress uwtable
define void @_ZN15DragDropToolBar14dragEnterEventEP15QDragEnterEvent(ptr noundef nonnull readnone align 8 dereferenceable(52) %0, ptr noundef %1) unnamed_addr #0 align 2 {
  %.not = icmp eq ptr %1, null
  br i1 %.not, label %30, label %3

3:                                                ; preds = %2
  %4 = getelementptr inbounds i8, ptr %1, i64 56
  %5 = load ptr, ptr %4, align 8
  %.not14 = icmp eq ptr %5, null
  br i1 %.not14, label %30, label %6

6:                                                ; preds = %3
  %7 = tail call noundef ptr @_ZNK11QMetaObject4castEPK7QObject(ptr noundef nonnull align 8 dereferenceable(56) @_ZN20ToolbarEntryMimeData16staticMetaObjectE, ptr noundef nonnull %5)
  %.not15 = icmp eq ptr %7, null
  br i1 %.not15, label %16, label %8

8:                                                ; preds = %6
  %9 = tail call noundef ptr @_ZNK10QDropEvent6sourceEv(ptr noundef nonnull align 8 dereferenceable(64) %1)
  %10 = icmp eq ptr %9, %0
  br i1 %10, label %11, label %12

11:                                               ; preds = %8
  tail call void @_ZN10QDropEvent13setDropActionEN2Qt10DropActionE(ptr noundef nonnull align 8 dereferenceable(64) %1, i32 noundef 2)
  br label %.sink.split

12:                                               ; preds = %8
  %13 = getelementptr inbounds i8, ptr %1, i64 48
  %14 = load i32, ptr %13, align 8
  %15 = getelementptr inbounds i8, ptr %1, i64 44
  store i32 %14, ptr %15, align 4
  br label %.sink.split

16:                                               ; preds = %6
  %17 = load ptr, ptr %4, align 8
  %18 = load ptr, ptr %17, align 8
  %19 = getelementptr inbounds i8, ptr %18, i64 96
  %20 = load ptr, ptr %19, align 8
  %21 = tail call noundef zeroext i1 %20(ptr noundef nonnull align 8 dereferenceable(16) %17, ptr noundef nonnull align 8 dereferenceable(24) @_ZN17WiresharkMimeData21DisplayFilterMimeTypeE)
  br i1 %21, label %22, label %.sink.split

22:                                               ; preds = %16
  %23 = tail call noundef ptr @_ZNK10QDropEvent6sourceEv(ptr noundef nonnull align 8 dereferenceable(64) %1)
  %.not16 = icmp eq ptr %23, %0
  br i1 %.not16, label %25, label %24

24:                                               ; preds = %22
  tail call void @_ZN10QDropEvent13setDropActionEN2Qt10DropActionE(ptr noundef nonnull align 8 dereferenceable(64) %1, i32 noundef 1)
  br label %.sink.split

25:                                               ; preds = %22
  %26 = getelementptr inbounds i8, ptr %1, i64 48
  %27 = load i32, ptr %26, align 8
  %28 = getelementptr inbounds i8, ptr %1, i64 44
  store i32 %27, ptr %28, align 4
  br label %.sink.split

.sink.split:                                      ; preds = %16, %12, %11, %24, %25
  %.sink = phi i8 [ 1, %25 ], [ 1, %24 ], [ 1, %11 ], [ 1, %12 ], [ 0, %16 ]
  %29 = getelementptr inbounds i8, ptr %1, i64 12
  store i8 %.sink, ptr %29, align 4
  br label %30

30:                                               ; preds = %.sink.split, %2, %3
  ret void
}